target datalayout = "e-m:e-p270:32:32-p271:32:32-p272:64:64-i64:64-i128:128-f80:128-n8:16:32:64-S128"
target triple = "x86_64-pc-linux-gnu"

%struct.Llb_Mtr_t_ = type { i32, i32, i32, i32, ptr, ptr, ptr, ptr, ptr, ptr, ptr }

; Function Attrs: nounwind uwtable
define ptr @Llb_MtrAlloc(i32 noundef %0, i32 noundef %1, i32 noundef %2, i32 noundef %3) #0 {
  %5 = alloca i32, align 4
  %6 = alloca i32, align 4
  %7 = alloca i32, align 4
  %8 = alloca i32, align 4
  %9 = alloca ptr, align 8
  %10 = alloca i32, align 4
  store i32 %0, ptr %5, align 4, !tbaa !8
  store i32 %1, ptr %6, align 4, !tbaa !8
  store i32 %2, ptr %7, align 4, !tbaa !8
  store i32 %3, ptr %8, align 4, !tbaa !8
  call void @llvm.lifetime.start.p0(i64 8, ptr %9) #8
  call void @llvm.lifetime.start.p0(i64 4, ptr %10) #8
  %11 = call noalias ptr @calloc(i64 noundef 1, i64 noundef 72) #9
  store ptr %11, ptr %9, align 8, !tbaa !3
  %12 = load i32, ptr %5, align 4, !tbaa !8
  %13 = load ptr, ptr %9, align 8, !tbaa !3
  %14 = getelementptr inbounds nuw %struct.Llb_Mtr_t_, ptr %13, i32 0, i32 0
  store i32 %12, ptr %14, align 8, !tbaa !31
  %15 = load i32, ptr %6, align 4, !tbaa !8
  %16 = load ptr, ptr %9, align 8, !tbaa !3
  %17 = getelementptr inbounds nuw %struct.Llb_Mtr_t_, ptr %16, i32 0, i32 1
  store i32 %15, ptr %17, align 4, !tbaa !32
  %18 = load i32, ptr %8, align 4, !tbaa !8
  %19 = load ptr, ptr %9, align 8, !tbaa !3
  %20 = getelementptr inbounds nuw %struct.Llb_Mtr_t_, ptr %19, i32 0, i32 2
  store i32 %18, ptr %20, align 8, !tbaa !17
  %21 = load i32, ptr %7, align 4, !tbaa !8
  %22 = load ptr, ptr %9, align 8, !tbaa !3
  %23 = getelementptr inbounds nuw %struct.Llb_Mtr_t_, ptr %22, i32 0, i32 3
  store i32 %21, ptr %23, align 4, !tbaa !10
  %24 = load i32, ptr %8, align 4, !tbaa !8
  %25 = sext i32 %24 to i64
  %26 = call noalias ptr @calloc(i64 noundef %25, i64 noundef 4) #9
  %27 = load ptr, ptr %9, align 8, !tbaa !3
  %28 = getelementptr inbounds nuw %struct.Llb_Mtr_t_, ptr %27, i32 0, i32 6
  store ptr %26, ptr %28, align 8, !tbaa !33
  %29 = load i32, ptr %7, align 4, !tbaa !8
  %30 = sext i32 %29 to i64
  %31 = call noalias ptr @calloc(i64 noundef %30, i64 noundef 4) #9
  %32 = load ptr, ptr %9, align 8, !tbaa !3
  %33 = getelementptr inbounds nuw %struct.Llb_Mtr_t_, ptr %32, i32 0, i32 4
  store ptr %31, ptr %33, align 8, !tbaa !44
  %34 = load i32, ptr %7, align 4, !tbaa !8
  %35 = sext i32 %34 to i64
  %36 = call noalias ptr @calloc(i64 noundef %35, i64 noundef 8) #9
  %37 = load ptr, ptr %9, align 8, !tbaa !3
  %38 = getelementptr inbounds nuw %struct.Llb_Mtr_t_, ptr %37, i32 0, i32 5
  store ptr %36, ptr %38, align 8, !tbaa !45
  %39 = load i32, ptr %7, align 4, !tbaa !8
  %40 = sext i32 %39 to i64
  %41 = call noalias ptr @calloc(i64 noundef %40, i64 noundef 8) #9
  %42 = load ptr, ptr %9, align 8, !tbaa !3
  %43 = getelementptr inbounds nuw %struct.Llb_Mtr_t_, ptr %42, i32 0, i32 7
  store ptr %41, ptr %43, align 8, !tbaa !18
  store i32 0, ptr %10, align 4, !tbaa !8
  br label %44

44:                                               ; preds = %58, %4
  %45 = load i32, ptr %10, align 4, !tbaa !8
  %46 = load i32, ptr %7, align 4, !tbaa !8
  %47 = icmp slt i32 %45, %46
  br i1 %47, label %48, label %61

48:                                               ; preds = %44
  %49 = load i32, ptr %8, align 4, !tbaa !8
  %50 = sext i32 %49 to i64
  %51 = call noalias ptr @calloc(i64 noundef %50, i64 noundef 1) #9
  %52 = load ptr, ptr %9, align 8, !tbaa !3
  %53 = getelementptr inbounds nuw %struct.Llb_Mtr_t_, ptr %52, i32 0, i32 7
  %54 = load ptr, ptr %53, align 8, !tbaa !18
  %55 = load i32, ptr %10, align 4, !tbaa !8
  %56 = sext i32 %55 to i64
  %57 = getelementptr inbounds ptr, ptr %54, i64 %56
  store ptr %51, ptr %57, align 8, !tbaa !19
  br label %58

58:                                               ; preds = %48
  %59 = load i32, ptr %10, align 4, !tbaa !8
  %60 = add nsw i32 %59, 1
  store i32 %60, ptr %10, align 4, !tbaa !8
  br label %44, !llvm.loop !46

61:                                               ; preds = %44
  %62 = load i32, ptr %8, align 4, !tbaa !8
  %63 = sext i32 %62 to i64
  %64 = call noalias ptr @calloc(i64 noundef %63, i64 noundef 1) #9
  %65 = load ptr, ptr %9, align 8, !tbaa !3
  %66 = getelementptr inbounds nuw %struct.Llb_Mtr_t_, ptr %65, i32 0, i32 9
  store ptr %64, ptr %66, align 8, !tbaa !47
  %67 = load i32, ptr %8, align 4, !tbaa !8
  %68 = sext i32 %67 to i64
  %69 = call noalias ptr @calloc(i64 noundef %68, i64 noundef 4) #9
  %70 = load ptr, ptr %9, align 8, !tbaa !3
  %71 = getelementptr inbounds nuw %struct.Llb_Mtr_t_, ptr %70, i32 0, i32 10
  store ptr %69, ptr %71, align 8, !tbaa !48
  %72 = load ptr, ptr %9, align 8, !tbaa !3
  call void @llvm.lifetime.end.p0(i64 4, ptr %10) #8
  call void @llvm.lifetime.end.p0(i64 8, ptr %9) #8
  ret ptr %72
}