; Function Attrs: nofree nounwind memory(write, argmem: none, inaccessiblemem: readwrite) uwtable
define noalias noundef ptr @Llb_MtrAlloc(i32 noundef %0, i32 noundef %1, i32 noundef %2, i32 noundef %3) local_unnamed_addr #9 {
  %5 = tail call noalias dereferenceable_or_null(72) ptr @calloc(i64 noundef 1, i64 noundef 72) #18
  store i32 %0, ptr %5, align 8, !tbaa !24
  %6 = getelementptr inbounds nuw i8, ptr %5, i64 4
  store i32 %1, ptr %6, align 4, !tbaa !25
  %7 = getelementptr inbounds nuw i8, ptr %5, i64 8
  store i32 %3, ptr %7, align 8, !tbaa !3
  %8 = getelementptr inbounds nuw i8, ptr %5, i64 12
  store i32 %2, ptr %8, align 4, !tbaa !14
  %9 = sext i32 %3 to i64
  %10 = tail call noalias ptr @calloc(i64 noundef %9, i64 noundef 4) #18
  %11 = getelementptr inbounds nuw i8, ptr %5, i64 32
  store ptr %10, ptr %11, align 8, !tbaa !26
  %12 = sext i32 %2 to i64
  %13 = tail call noalias ptr @calloc(i64 noundef %12, i64 noundef 4) #18
  %14 = getelementptr inbounds nuw i8, ptr %5, i64 16
  store ptr %13, ptr %14, align 8, !tbaa !40
  %15 = tail call noalias ptr @calloc(i64 noundef %12, i64 noundef 8) #18
  %16 = getelementptr inbounds nuw i8, ptr %5, i64 24
  store ptr %15, ptr %16, align 8, !tbaa !41
  %17 = tail call noalias ptr @calloc(i64 noundef %12, i64 noundef 8) #18
  %18 = getelementptr inbounds nuw i8, ptr %5, i64 40
  store ptr %17, ptr %18, align 8, !tbaa !19
  %19 = icmp sgt i32 %2, 0
  br i1 %19, label %.lr.ph.preheader, label %._crit_edge

.lr.ph.preheader:                                 ; preds = %4
  %wide.trip.count = zext nneg i32 %2 to i64
  br label %.lr.ph

.lr.ph:                                           ; preds = %.lr.ph.preheader, %.lr.ph
  %indvars.iv = phi i64 [ 0, %.lr.ph.preheader ], [ %indvars.iv.next, %.lr.ph ]
  %20 = tail call noalias ptr @calloc(i64 noundef %9, i64 noundef 1) #18
  %21 = getelementptr inbounds nuw ptr, ptr %17, i64 %indvars.iv
  store ptr %20, ptr %21, align 8, !tbaa !20
  %indvars.iv.next = add nuw nsw i64 %indvars.iv, 1
  %exitcond.not = icmp eq i64 %indvars.iv.next, %wide.trip.count
  br i1 %exitcond.not, label %._crit_edge, label %.lr.ph, !llvm.loop !42

._crit_edge:                                      ; preds = %.lr.ph, %4
  %22 = tail call noalias ptr @calloc(i64 noundef %9, i64 noundef 1) #18
  %23 = getelementptr inbounds nuw i8, ptr %5, i64 56
  store ptr %22, ptr %23, align 8, !tbaa !43
  %24 = tail call noalias ptr @calloc(i64 noundef %9, i64 noundef 4) #18
  %25 = getelementptr inbounds nuw i8, ptr %5, i64 64
  store ptr %24, ptr %25, align 8, !tbaa !44
  ret ptr %5
}